target datalayout = "e-m:e-p270:32:32-p271:32:32-p272:64:64-i64:64-i128:128-f80:128-n8:16:32:64-S128"
target triple = "x86_64-pc-linux-gnu"

%struct.FT_Glyph_Class_ = type { i64, i32, ptr, ptr, ptr, ptr, ptr, ptr }
%struct.FT_Vector_ = type { i64, i64 }
%struct.FT_StrokerRec_ = type { i64, i64, %struct.FT_Vector_, i64, i8, i8, i64, %struct.FT_Vector_, i64, i8, i32, i32, i32, i64, i64, [2 x %struct.FT_StrokeBorderRec_], ptr }
%struct.FT_StrokeBorderRec_ = type { i32, i32, ptr, ptr, i8, i32, ptr, i8 }
%struct.FT_Outline_ = type { i16, i16, ptr, ptr, ptr, i32 }
%struct.FT_GlyphRec_ = type { ptr, ptr, i32, %struct.FT_Vector_ }
%struct.FT_OutlineGlyphRec_ = type { %struct.FT_GlyphRec_, %struct.FT_Outline_ }

@ft_outline_glyph_class = external constant %struct.FT_Glyph_Class_, align 8

; Function Attrs: nounwind uwtable
define internal i32 @ft_stroke_border_get_counts(ptr noundef %0, ptr noundef %1, ptr noundef %2) #0 {
  %4 = alloca ptr, align 8
  %5 = alloca ptr, align 8
  %6 = alloca ptr, align 8
  %7 = alloca i32, align 4
  %8 = alloca i32, align 4
  %9 = alloca i32, align 4
  %10 = alloca i32, align 4
  %11 = alloca ptr, align 8
  %12 = alloca ptr, align 8
  %13 = alloca i32, align 4
  store ptr %0, ptr %4, align 8
  store ptr %1, ptr %5, align 8
  store ptr %2, ptr %6, align 8
  store i32 0, ptr %7, align 4
  store i32 0, ptr %8, align 4
  store i32 0, ptr %9, align 4
  %14 = load ptr, ptr %4, align 8
  %15 = getelementptr inbounds %struct.FT_StrokeBorderRec_, ptr %14, i32 0, i32 0
  %16 = load i32, ptr %15, align 8
  store i32 %16, ptr %10, align 4
  %17 = load ptr, ptr %4, align 8
  %18 = getelementptr inbounds %struct.FT_StrokeBorderRec_, ptr %17, i32 0, i32 2
  %19 = load ptr, ptr %18, align 8
  store ptr %19, ptr %11, align 8
  %20 = load ptr, ptr %4, align 8
  %21 = getelementptr inbounds %struct.FT_StrokeBorderRec_, ptr %20, i32 0, i32 3
  %22 = load ptr, ptr %21, align 8
  store ptr %22, ptr %12, align 8
  store i32 0, ptr %13, align 4
  br label %23

23:                                               ; preds = %54, %3
  %24 = load i32, ptr %10, align 4
  %25 = icmp ugt i32 %24, 0
  br i1 %25, label %26, label %63

26:                                               ; preds = %23
  %27 = load ptr, ptr %12, align 8
  %28 = getelementptr inbounds i8, ptr %27, i64 0
  %29 = load i8, ptr %28, align 1
  %30 = zext i8 %29 to i32
  %31 = and i32 %30, 4
  %32 = icmp ne i32 %31, 0
  br i1 %32, label %33, label %38

33:                                               ; preds = %26
  %34 = load i32, ptr %13, align 4
  %35 = icmp ne i32 %34, 0
  br i1 %35, label %36, label %37

36:                                               ; preds = %33
  br label %76

37:                                               ; preds = %33
  store i32 1, ptr %13, align 4
  br label %43

38:                                               ; preds = %26
  %39 = load i32, ptr %13, align 4
  %40 = icmp eq i32 %39, 0
  br i1 %40, label %41, label %42

41:                                               ; preds = %38
  br label %76

42:                                               ; preds = %38
  br label %43

43:                                               ; preds = %42, %37
  %44 = load ptr, ptr %12, align 8
  %45 = getelementptr inbounds i8, ptr %44, i64 0
  %46 = load i8, ptr %45, align 1
  %47 = zext i8 %46 to i32
  %48 = and i32 %47, 8
  %49 = icmp ne i32 %48, 0
  br i1 %49, label %50, label %53

50:                                               ; preds = %43
  store i32 0, ptr %13, align 4
  %51 = load i32, ptr %9, align 4
  %52 = add i32 %51, 1
  store i32 %52, ptr %9, align 4
  br label %53

53:                                               ; preds = %50, %43
  br label %54

54:                                               ; preds = %53
  %55 = load i32, ptr %10, align 4
  %56 = add i32 %55, -1
  store i32 %56, ptr %10, align 4
  %57 = load i32, ptr %8, align 4
  %58 = add i32 %57, 1
  store i32 %58, ptr %8, align 4
  %59 = load ptr, ptr %11, align 8
  %60 = getelementptr inbounds %struct.FT_Vector_, ptr %59, i32 1
  store ptr %60, ptr %11, align 8
  %61 = load ptr, ptr %12, align 8
  %62 = getelementptr inbounds i8, ptr %61, i32 1
  store ptr %62, ptr %12, align 8
  br label %23, !llvm.loop !13

63:                                               ; preds = %23
  %64 = load i32, ptr %13, align 4
  %65 = icmp ne i32 %64, 0
  br i1 %65, label %66, label %67

66:                                               ; preds = %63
  br label %76

67:                                               ; preds = %63
  %68 = load ptr, ptr %4, align 8
  %69 = getelementptr inbounds %struct.FT_StrokeBorderRec_, ptr %68, i32 0, i32 7
  store i8 1, ptr %69, align 8
  br label %70

70:                                               ; preds = %76, %67
  %71 = load i32, ptr %8, align 4
  %72 = load ptr, ptr %5, align 8
  store i32 %71, ptr %72, align 4
  %73 = load i32, ptr %9, align 4
  %74 = load ptr, ptr %6, align 8
  store i32 %73, ptr %74, align 4
  %75 = load i32, ptr %7, align 4
  ret i32 %75

76:                                               ; preds = %66, %41, %36
  store i32 0, ptr %8, align 4
  store i32 0, ptr %9, align 4
  br label %70
}

; Function Attrs: nounwind uwtable
define i32 @FT_Stroker_GetCounts(ptr noundef %0, ptr noundef %1, ptr noundef %2) #0 {
  %4 = alloca ptr, align 8
  %5 = alloca ptr, align 8
  %6 = alloca ptr, align 8
  %7 = alloca i32, align 4
  %8 = alloca i32, align 4
  %9 = alloca i32, align 4
  %10 = alloca i32, align 4
  %11 = alloca i32, align 4
  %12 = alloca i32, align 4
  %13 = alloca i32, align 4
  store ptr %0, ptr %4, align 8
  store ptr %1, ptr %5, align 8
  store ptr %2, ptr %6, align 8
  store i32 0, ptr %9, align 4
  store i32 0, ptr %12, align 4
  %14 = load ptr, ptr %4, align 8
  %15 = icmp ne ptr %14, null
  br i1 %15, label %17, label %16

16:                                               ; preds = %3
  store i32 6, ptr %13, align 4
  br label %42

17:                                               ; preds = %3
  %18 = load ptr, ptr %4, align 8
  %19 = getelementptr inbounds %struct.FT_StrokerRec_, ptr %18, i32 0, i32 15
  %20 = getelementptr inbounds [2 x %struct.FT_StrokeBorderRec_], ptr %19, i64 0, i64 0
  %21 = getelementptr inbounds %struct.FT_StrokeBorderRec_, ptr %20, i64 0
  %22 = call i32 @ft_stroke_border_get_counts(ptr noundef %21, ptr noundef %7, ptr noundef %8)
  store i32 %22, ptr %13, align 4
  %23 = load i32, ptr %13, align 4
  %24 = icmp ne i32 %23, 0
  br i1 %24, label %25, label %26

25:                                               ; preds = %17
  br label %42

26:                                               ; preds = %17
  %27 = load ptr, ptr %4, align 8
  %28 = getelementptr inbounds %struct.FT_StrokerRec_, ptr %27, i32 0, i32 15
  %29 = getelementptr inbounds [2 x %struct.FT_StrokeBorderRec_], ptr %28, i64 0, i64 0
  %30 = getelementptr inbounds %struct.FT_StrokeBorderRec_, ptr %29, i64 1
  %31 = call i32 @ft_stroke_border_get_counts(ptr noundef %30, ptr noundef %10, ptr noundef %11)
  store i32 %31, ptr %13, align 4
  %32 = load i32, ptr %13, align 4
  %33 = icmp ne i32 %32, 0
  br i1 %33, label %34, label %35

34:                                               ; preds = %26
  br label %42

35:                                               ; preds = %26
  %36 = load i32, ptr %7, align 4
  %37 = load i32, ptr %10, align 4
  %38 = add i32 %36, %37
  store i32 %38, ptr %9, align 4
  %39 = load i32, ptr %8, align 4
  %40 = load i32, ptr %11, align 4
  %41 = add i32 %39, %40
  store i32 %41, ptr %12, align 4
  br label %42

42:                                               ; preds = %35, %34, %25, %16
  %43 = load ptr, ptr %5, align 8
  %44 = icmp ne ptr %43, null
  br i1 %44, label %45, label %48

45:                                               ; preds = %42
  %46 = load i32, ptr %9, align 4
  %47 = load ptr, ptr %5, align 8
  store i32 %46, ptr %47, align 4
  br label %48

48:                                               ; preds = %45, %42
  %49 = load ptr, ptr %6, align 8
  %50 = icmp ne ptr %49, null
  br i1 %50, label %51, label %54

51:                                               ; preds = %48
  %52 = load i32, ptr %12, align 4
  %53 = load ptr, ptr %6, align 8
  store i32 %52, ptr %53, align 4
  br label %54

54:                                               ; preds = %51, %48
  %55 = load i32, ptr %13, align 4
  ret i32 %55
}

; Function Attrs: nounwind uwtable
define i32 @FT_Glyph_Stroke(ptr noundef %0, ptr noundef %1, i8 noundef zeroext %2) #0 {
  %4 = alloca ptr, align 8
  %5 = alloca ptr, align 8
  %6 = alloca i8, align 1
  %7 = alloca i32, align 4
  %8 = alloca ptr, align 8
  %9 = alloca ptr, align 8
  %10 = alloca ptr, align 8
  %11 = alloca ptr, align 8
  %12 = alloca i32, align 4
  %13 = alloca i32, align 4
  store ptr %0, ptr %4, align 8
  store ptr %1, ptr %5, align 8
  store i8 %2, ptr %6, align 1
  store i32 6, ptr %7, align 4
  store ptr null, ptr %8, align 8
  %14 = load ptr, ptr %4, align 8
  %15 = icmp ne ptr %14, null
  br i1 %15, label %17, label %16

16:                                               ; preds = %3
  br label %85

17:                                               ; preds = %3
  %18 = load ptr, ptr %4, align 8
  %19 = load ptr, ptr %18, align 8
  store ptr %19, ptr %8, align 8
  %20 = load ptr, ptr %8, align 8
  %21 = icmp ne ptr %20, null
  br i1 %21, label %22, label %27

22:                                               ; preds = %17
  %23 = load ptr, ptr %8, align 8
  %24 = getelementptr inbounds %struct.FT_GlyphRec_, ptr %23, i32 0, i32 1
  %25 = load ptr, ptr %24, align 8
  %26 = icmp ne ptr %25, @ft_outline_glyph_class
  br i1 %26, label %27, label %28

27:                                               ; preds = %22, %17
  br label %85

28:                                               ; preds = %22
  %29 = load ptr, ptr %8, align 8
  %30 = call i32 @FT_Glyph_Copy(ptr noundef %29, ptr noundef %9)
  store i32 %30, ptr %7, align 4
  %31 = load i32, ptr %7, align 4
  %32 = icmp ne i32 %31, 0
  br i1 %32, label %33, label %34

33:                                               ; preds = %28
  br label %85

34:                                               ; preds = %28
  %35 = load ptr, ptr %9, align 8
  store ptr %35, ptr %8, align 8
  %36 = load ptr, ptr %8, align 8
  store ptr %36, ptr %10, align 8
  %37 = load ptr, ptr %10, align 8
  %38 = getelementptr inbounds %struct.FT_OutlineGlyphRec_, ptr %37, i32 0, i32 1
  store ptr %38, ptr %11, align 8
  %39 = load ptr, ptr %5, align 8
  %40 = load ptr, ptr %11, align 8
  %41 = call i32 @FT_Stroker_ParseOutline(ptr noundef %39, ptr noundef %40, i8 noundef zeroext 0)
  store i32 %41, ptr %7, align 4
  %42 = load i32, ptr %7, align 4
  %43 = icmp ne i32 %42, 0
  br i1 %43, label %44, label %45

44:                                               ; preds = %34
  br label %78

45:                                               ; preds = %34
  %46 = load ptr, ptr %5, align 8
  %47 = call i32 @FT_Stroker_GetCounts(ptr noundef %46, ptr noundef %12, ptr noundef %13)
  %48 = load ptr, ptr %8, align 8
  %49 = getelementptr inbounds %struct.FT_GlyphRec_, ptr %48, i32 0, i32 0
  %50 = load ptr, ptr %49, align 8
  %51 = load ptr, ptr %11, align 8
  %52 = call i32 @FT_Outline_Done(ptr noundef %50, ptr noundef %51)
  %53 = load ptr, ptr %8, align 8
  %54 = getelementptr inbounds %struct.FT_GlyphRec_, ptr %53, i32 0, i32 0
  %55 = load ptr, ptr %54, align 8
  %56 = load i32, ptr %12, align 4
  %57 = load i32, ptr %13, align 4
  %58 = load ptr, ptr %11, align 8
  %59 = call i32 @FT_Outline_New(ptr noundef %55, i32 noundef %56, i32 noundef %57, ptr noundef %58)
  store i32 %59, ptr %7, align 4
  %60 = load i32, ptr %7, align 4
  %61 = icmp ne i32 %60, 0
  br i1 %61, label %62, label %63

62:                                               ; preds = %45
  br label %78

63:                                               ; preds = %45
  %64 = load ptr, ptr %11, align 8
  %65 = getelementptr inbounds %struct.FT_Outline_, ptr %64, i32 0, i32 1
  store i16 0, ptr %65, align 2
  %66 = load ptr, ptr %11, align 8
  %67 = getelementptr inbounds %struct.FT_Outline_, ptr %66, i32 0, i32 0
  store i16 0, ptr %67, align 8
  %68 = load ptr, ptr %5, align 8
  %69 = load ptr, ptr %11, align 8
  call void @FT_Stroker_Export(ptr noundef %68, ptr noundef %69)
  %70 = load i8, ptr %6, align 1
  %71 = icmp ne i8 %70, 0
  br i1 %71, label %72, label %75

72:                                               ; preds = %63
  %73 = load ptr, ptr %4, align 8
  %74 = load ptr, ptr %73, align 8
  call void @FT_Done_Glyph(ptr noundef %74)
  br label %75

75:                                               ; preds = %72, %63
  %76 = load ptr, ptr %8, align 8
  %77 = load ptr, ptr %4, align 8
  store ptr %76, ptr %77, align 8
  br label %85

78:                                               ; preds = %62, %44
  %79 = load ptr, ptr %8, align 8
  call void @FT_Done_Glyph(ptr noundef %79)
  store ptr null, ptr %8, align 8
  %80 = load i8, ptr %6, align 1
  %81 = icmp ne i8 %80, 0
  br i1 %81, label %84, label %82

82:                                               ; preds = %78
  %83 = load ptr, ptr %4, align 8
  store ptr null, ptr %83, align 8
  br label %84

84:                                               ; preds = %82, %78
  br label %85

85:                                               ; preds = %84, %75, %33, %27, %16
  %86 = load i32, ptr %7, align 4
  ret i32 %86
}