; Function Attrs: nounwind uwtable
define i32 @FT_Glyph_Stroke(ptr noundef %0, ptr noundef %1, i8 noundef zeroext %2) local_unnamed_addr #0 {
  %4 = alloca ptr, align 8
  %.not = icmp eq ptr %0, null
  br i1 %.not, label %55, label %5

5:                                                ; preds = %3
  %6 = load ptr, ptr %0, align 8
  %.not34 = icmp eq ptr %6, null
  br i1 %.not34, label %55, label %7

7:                                                ; preds = %5
  %8 = getelementptr inbounds nuw i8, ptr %6, i64 8
  %9 = load ptr, ptr %8, align 8
  %.not35 = icmp eq ptr %9, @ft_outline_glyph_class
  br i1 %.not35, label %10, label %55

10:                                               ; preds = %7
  %11 = call i32 @FT_Glyph_Copy(ptr noundef nonnull %6, ptr noundef nonnull %4) #11
  %.not36 = icmp eq i32 %11, 0
  br i1 %.not36, label %12, label %55

12:                                               ; preds = %10
  %13 = load ptr, ptr %4, align 8
  %14 = getelementptr inbounds nuw i8, ptr %13, i64 40
  %15 = call i32 @FT_Stroker_ParseOutline(ptr noundef %1, ptr noundef nonnull %14, i8 noundef zeroext 0)
  %.not37 = icmp eq i32 %15, 0
  br i1 %.not37, label %16, label %54

16:                                               ; preds = %12
  %.not.i = icmp eq ptr %1, null
  br i1 %.not.i, label %FT_Stroker_GetCounts.exit, label %17

17:                                               ; preds = %16
  %18 = getelementptr inbounds nuw i8, ptr %1, i64 112
  %19 = load i32, ptr %18, align 8
  %.not35.i.i = icmp eq i32 %19, 0
  br i1 %.not35.i.i, label %._crit_edge.thread.i.i, label %.lr.ph.preheader.i.i

.lr.ph.preheader.i.i:                             ; preds = %17
  %20 = getelementptr inbounds nuw i8, ptr %1, i64 128
  %21 = load ptr, ptr %20, align 8
  br label %.lr.ph.i.i

.lr.ph.i.i:                                       ; preds = %25, %.lr.ph.preheader.i.i
  %.040.i.i = phi i1 [ %.not30.not.i.i, %25 ], [ true, %.lr.ph.preheader.i.i ]
  %.01939.i.i = phi ptr [ %29, %25 ], [ %21, %.lr.ph.preheader.i.i ]
  %.02138.i.i = phi i32 [ %28, %25 ], [ %19, %.lr.ph.preheader.i.i ]
  %.02237.i.i = phi i32 [ %spec.select.i.i, %25 ], [ 0, %.lr.ph.preheader.i.i ]
  %22 = load i8, ptr %.01939.i.i, align 1
  %23 = and i8 %22, 4
  %.not28.i.i = icmp eq i8 %23, 0
  %24 = xor i1 %.040.i.i, %.not28.i.i
  br i1 %24, label %25, label %ft_stroke_border_get_counts.exit.i

25:                                               ; preds = %.lr.ph.i.i
  %26 = and i8 %22, 8
  %.not30.not.i.i = icmp ne i8 %26, 0
  %.lobit.i.i = lshr exact i8 %26, 3
  %27 = zext nneg i8 %.lobit.i.i to i32
  %spec.select.i.i = add i32 %.02237.i.i, %27
  %28 = add i32 %.02138.i.i, -1
  %29 = getelementptr inbounds nuw i8, ptr %.01939.i.i, i64 1
  %.not.i.i = icmp eq i32 %28, 0
  br i1 %.not.i.i, label %._crit_edge.i.i, label %.lr.ph.i.i, !llvm.loop !14

._crit_edge.i.i:                                  ; preds = %25
  br i1 %.not30.not.i.i, label %._crit_edge.thread.i.i, label %ft_stroke_border_get_counts.exit.i

._crit_edge.thread.i.i:                           ; preds = %._crit_edge.i.i, %17
  %.022.lcssa47.i.i = phi i32 [ %spec.select.i.i, %._crit_edge.i.i ], [ 0, %17 ]
  %30 = getelementptr inbounds nuw i8, ptr %1, i64 152
  store i8 1, ptr %30, align 8
  br label %ft_stroke_border_get_counts.exit.i

ft_stroke_border_get_counts.exit.i:               ; preds = %.lr.ph.i.i, %._crit_edge.thread.i.i, %._crit_edge.i.i
  %.126.i.i = phi i32 [ %19, %._crit_edge.thread.i.i ], [ 0, %._crit_edge.i.i ], [ 0, %.lr.ph.i.i ]
  %.224.i.i = phi i32 [ %.022.lcssa47.i.i, %._crit_edge.thread.i.i ], [ 0, %._crit_edge.i.i ], [ 0, %.lr.ph.i.i ]
  %31 = getelementptr inbounds nuw i8, ptr %1, i64 160
  %32 = load i32, ptr %31, align 8
  %.not35.i20.i = icmp eq i32 %32, 0
  br i1 %.not35.i20.i, label %._crit_edge.thread.i35.i, label %.lr.ph.preheader.i21.i

.lr.ph.preheader.i21.i:                           ; preds = %ft_stroke_border_get_counts.exit.i
  %33 = getelementptr inbounds nuw i8, ptr %1, i64 176
  %34 = load ptr, ptr %33, align 8
  br label %.lr.ph.i22.i

.lr.ph.i22.i:                                     ; preds = %38, %.lr.ph.preheader.i21.i
  %.040.i23.i = phi i1 [ %.not30.not.i30.i, %38 ], [ true, %.lr.ph.preheader.i21.i ]
  %.01939.i24.i = phi ptr [ %42, %38 ], [ %34, %.lr.ph.preheader.i21.i ]
  %.02138.i25.i = phi i32 [ %41, %38 ], [ %32, %.lr.ph.preheader.i21.i ]
  %.02237.i26.i = phi i32 [ %spec.select.i32.i, %38 ], [ 0, %.lr.ph.preheader.i21.i ]
  %35 = load i8, ptr %.01939.i24.i, align 1
  %36 = and i8 %35, 4
  %.not28.i27.i = icmp eq i8 %36, 0
  %37 = xor i1 %.040.i23.i, %.not28.i27.i
  br i1 %37, label %38, label %ft_stroke_border_get_counts.exit38.i

38:                                               ; preds = %.lr.ph.i22.i
  %39 = and i8 %35, 8
  %.not30.not.i30.i = icmp ne i8 %39, 0
  %.lobit.i31.i = lshr exact i8 %39, 3
  %40 = zext nneg i8 %.lobit.i31.i to i32
  %spec.select.i32.i = add i32 %.02237.i26.i, %40
  %41 = add i32 %.02138.i25.i, -1
  %42 = getelementptr inbounds nuw i8, ptr %.01939.i24.i, i64 1
  %.not.i33.i = icmp eq i32 %41, 0
  br i1 %.not.i33.i, label %._crit_edge.i34.i, label %.lr.ph.i22.i, !llvm.loop !14

._crit_edge.i34.i:                                ; preds = %38
  br i1 %.not30.not.i30.i, label %._crit_edge.thread.i35.i, label %ft_stroke_border_get_counts.exit38.i

._crit_edge.thread.i35.i:                         ; preds = %._crit_edge.i34.i, %ft_stroke_border_get_counts.exit.i
  %.022.lcssa47.i36.i = phi i32 [ %spec.select.i32.i, %._crit_edge.i34.i ], [ 0, %ft_stroke_border_get_counts.exit.i ]
  %43 = getelementptr inbounds nuw i8, ptr %1, i64 200
  store i8 1, ptr %43, align 8
  br label %ft_stroke_border_get_counts.exit38.i

ft_stroke_border_get_counts.exit38.i:             ; preds = %.lr.ph.i22.i, %._crit_edge.thread.i35.i, %._crit_edge.i34.i
  %.126.i28.i = phi i32 [ %32, %._crit_edge.thread.i35.i ], [ 0, %._crit_edge.i34.i ], [ 0, %.lr.ph.i22.i ]
  %.224.i29.i = phi i32 [ %.022.lcssa47.i36.i, %._crit_edge.thread.i35.i ], [ 0, %._crit_edge.i34.i ], [ 0, %.lr.ph.i22.i ]
  %44 = add i32 %.126.i28.i, %.126.i.i
  %45 = add i32 %.224.i29.i, %.224.i.i
  br label %FT_Stroker_GetCounts.exit

FT_Stroker_GetCounts.exit:                        ; preds = %16, %ft_stroke_border_get_counts.exit38.i
  %.012.i = phi i32 [ %44, %ft_stroke_border_get_counts.exit38.i ], [ 0, %16 ]
  %.011.i = phi i32 [ %45, %ft_stroke_border_get_counts.exit38.i ], [ 0, %16 ]
  %46 = load ptr, ptr %13, align 8
  %47 = call i32 @FT_Outline_Done(ptr noundef %46, ptr noundef nonnull %14) #11
  %48 = load ptr, ptr %13, align 8
  %49 = call i32 @FT_Outline_New(ptr noundef %48, i32 noundef %.012.i, i32 noundef %.011.i, ptr noundef nonnull %14) #11
  %.not38 = icmp eq i32 %49, 0
  br i1 %.not38, label %50, label %54

50:                                               ; preds = %FT_Stroker_GetCounts.exit
  %51 = getelementptr inbounds nuw i8, ptr %13, i64 42
  store i16 0, ptr %51, align 2
  store i16 0, ptr %14, align 8
  call void @FT_Stroker_Export(ptr noundef %1, ptr noundef nonnull %14)
  %.not39 = icmp eq i8 %2, 0
  br i1 %.not39, label %.sink.split, label %52

52:                                               ; preds = %50
  %53 = load ptr, ptr %0, align 8
  call void @FT_Done_Glyph(ptr noundef %53) #11
  br label %.sink.split

54:                                               ; preds = %FT_Stroker_GetCounts.exit, %12
  %.1 = phi i32 [ %15, %12 ], [ %49, %FT_Stroker_GetCounts.exit ]
  call void @FT_Done_Glyph(ptr noundef nonnull %13) #11
  %.not40 = icmp eq i8 %2, 0
  br i1 %.not40, label %.sink.split, label %55

.sink.split:                                      ; preds = %54, %50, %52
  %.sink = phi ptr [ %13, %52 ], [ %13, %50 ], [ null, %54 ]
  %.0.ph = phi i32 [ 0, %52 ], [ 0, %50 ], [ %.1, %54 ]
  store ptr %.sink, ptr %0, align 8
  br label %55

55:                                               ; preds = %.sink.split, %54, %10, %5, %7, %3
  %.0 = phi i32 [ 6, %7 ], [ %11, %10 ], [ %.1, %54 ], [ 6, %5 ], [ 6, %3 ], [ %.0.ph, %.sink.split ]
  ret i32 %.0
}